target datalayout = "e-m:e-p270:32:32-p271:32:32-p272:64:64-i64:64-i128:128-f80:128-n8:16:32:64-S128"
target triple = "x86_64-pc-linux-gnu"

%"class.std::__cxx11::basic_string" = type { %"struct.std::__cxx11::basic_string<char>::_Alloc_hider", i64, %union.anon }
%"struct.std::__cxx11::basic_string<char>::_Alloc_hider" = type { ptr }
%union.anon = type { i64, [8 x i8] }
%"class.std::__shared_count" = type { ptr }
%"class.llvm::SmallVectorBase" = type { ptr, i32, i32 }
%"class.clang::format::WhitespaceManager" = type <{ %"class.llvm::SmallVector.94", ptr, %"class.clang::tooling::Replacements", ptr, i8, [7 x i8] }>
%"class.llvm::SmallVector.94" = type { %"class.llvm::SmallVectorImpl.95", %"struct.llvm::SmallVectorStorage.98" }
%"class.llvm::SmallVectorImpl.95" = type { %"class.llvm::SmallVectorTemplateBase.96" }
%"class.llvm::SmallVectorTemplateBase.96" = type { %"class.llvm::SmallVectorTemplateCommon.97" }
%"class.llvm::SmallVectorTemplateCommon.97" = type { %"class.llvm::SmallVectorBase" }
%"struct.llvm::SmallVectorStorage.98" = type { [2176 x i8] }
%"class.clang::tooling::Replacements" = type { %"class.std::set" }
%"class.std::set" = type { %"class.std::_Rb_tree" }
%"class.std::_Rb_tree" = type { %"struct.std::_Rb_tree<clang::tooling::Replacement, clang::tooling::Replacement, std::_Identity<clang::tooling::Replacement>, std::less<clang::tooling::Replacement>>::_Rb_tree_impl" }
%"struct.std::_Rb_tree<clang::tooling::Replacement, clang::tooling::Replacement, std::_Identity<clang::tooling::Replacement>, std::less<clang::tooling::Replacement>>::_Rb_tree_impl" = type { [8 x i8], %"struct.std::_Rb_tree_header" }
%"struct.std::_Rb_tree_header" = type { %"struct.std::_Rb_tree_node_base", i64 }
%"struct.std::_Rb_tree_node_base" = type { i32, ptr, ptr, ptr }
%"struct.clang::format::FormatStyle" = type { i8, i32, i8, i8, %"struct.clang::format::FormatStyle::AlignConsecutiveStyle", %"struct.clang::format::FormatStyle::AlignConsecutiveStyle", %"struct.clang::format::FormatStyle::AlignConsecutiveStyle", %"struct.clang::format::FormatStyle::AlignConsecutiveStyle", %"struct.clang::format::FormatStyle::ShortCaseStatementsAlignmentStyle", %"struct.clang::format::FormatStyle::AlignConsecutiveStyle", %"struct.clang::format::FormatStyle::AlignConsecutiveStyle", %"struct.clang::format::FormatStyle::AlignConsecutiveStyle", i8, i8, %"struct.clang::format::FormatStyle::TrailingCommentsAlignmentStyle", i8, i8, i8, i8, i8, i8, i8, i8, i8, i8, i8, i8, i8, i8, %"class.std::vector.102", i8, i8, i8, i8, %"class.std::optional.107", %"struct.clang::format::FormatStyle::BraceWrappingFlags", i8, i8, i8, i8, i8, i8, i8, i8, i8, i8, i8, i8, i8, i8, i32, %"class.std::__cxx11::basic_string", i8, i8, i8, i32, i32, i8, i8, i8, i8, i8, i8, i8, %"class.std::vector.102", %"struct.clang::tooling::IncludeStyle", %"class.std::vector.102", i8, i8, i8, i8, i8, i8, i8, i32, i8, i8, i8, i8, %"struct.clang::format::FormatStyle::IntegerLiteralSeparatorStyle", %"class.std::vector.102", i8, i8, %"struct.clang::format::FormatStyle::KeepEmptyLinesStyle", i8, i8, i8, %"class.std::__cxx11::basic_string", %"class.std::__cxx11::basic_string", %"class.std::vector.102", i32, i8, %"class.std::vector.102", i8, i32, i8, %"class.std::vector.102", i8, i8, i8, i32, i32, i32, i32, i32, i32, i32, i32, i32, i32, i32, i8, i32, i8, %"class.std::vector.102", %"class.std::vector.120", i8, i8, i8, i8, i8, i8, i8, i8, i32, i8, i8, i8, i8, i8, i8, i8, i8, i8, i8, i8, i8, i8, i8, i8, %"struct.clang::format::FormatStyle::SpaceBeforeParensCustom", i8, i8, i8, i32, i8, i8, %"struct.clang::format::FormatStyle::SpacesInLineComment", i8, %"struct.clang::format::FormatStyle::SpacesInParensCustom", i8, i8, %"class.std::vector.102", %"class.std::vector.102", %"class.std::vector.102", i8, i32, %"class.std::vector.102", %"class.std::vector.102", i8, i8, %"class.std::vector.102", %"struct.clang::format::FormatStyle::FormatStyleSet" }
%"struct.clang::format::FormatStyle::ShortCaseStatementsAlignmentStyle" = type { i8, i8, i8, i8, i8 }
%"struct.clang::format::FormatStyle::AlignConsecutiveStyle" = type { i8, i8, i8, i8, i8, i8 }
%"struct.clang::format::FormatStyle::TrailingCommentsAlignmentStyle" = type { i8, i32 }
%"class.std::optional.107" = type { %"struct.std::_Optional_base.108" }
%"struct.std::_Optional_base.108" = type { %"struct.std::_Optional_payload.110" }
%"struct.std::_Optional_payload.110" = type { %"struct.std::_Optional_payload_base.base.112", [3 x i8] }
%"struct.std::_Optional_payload_base.base.112" = type <{ %"union.std::_Optional_payload_base<unsigned int>::_Storage", i8 }>
%"union.std::_Optional_payload_base<unsigned int>::_Storage" = type { i32 }
%"struct.clang::format::FormatStyle::BraceWrappingFlags" = type { i8, i8, i8, i8, i8, i8, i8, i8, i8, i8, i8, i8, i8, i8, i8, i8, i8, i8 }
%"struct.clang::tooling::IncludeStyle" = type <{ i32, [4 x i8], %"class.std::vector.115", %"class.std::__cxx11::basic_string", %"class.std::__cxx11::basic_string", i8, [7 x i8] }>
%"class.std::vector.115" = type { %"struct.std::_Vector_base.116" }
%"struct.std::_Vector_base.116" = type { %"struct.std::_Vector_base<clang::tooling::IncludeStyle::IncludeCategory, std::allocator<clang::tooling::IncludeStyle::IncludeCategory>>::_Vector_impl" }
%"struct.std::_Vector_base<clang::tooling::IncludeStyle::IncludeCategory, std::allocator<clang::tooling::IncludeStyle::IncludeCategory>>::_Vector_impl" = type { %"struct.std::_Vector_base<clang::tooling::IncludeStyle::IncludeCategory, std::allocator<clang::tooling::IncludeStyle::IncludeCategory>>::_Vector_impl_data" }
%"struct.std::_Vector_base<clang::tooling::IncludeStyle::IncludeCategory, std::allocator<clang::tooling::IncludeStyle::IncludeCategory>>::_Vector_impl_data" = type { ptr, ptr, ptr }
%"struct.clang::format::FormatStyle::IntegerLiteralSeparatorStyle" = type { i8, i8, i8, i8, i8, i8 }
%"struct.clang::format::FormatStyle::KeepEmptyLinesStyle" = type { i8, i8, i8 }
%"class.std::vector.120" = type { %"struct.std::_Vector_base.121" }
%"struct.std::_Vector_base.121" = type { %"struct.std::_Vector_base<clang::format::FormatStyle::RawStringFormat, std::allocator<clang::format::FormatStyle::RawStringFormat>>::_Vector_impl" }
%"struct.std::_Vector_base<clang::format::FormatStyle::RawStringFormat, std::allocator<clang::format::FormatStyle::RawStringFormat>>::_Vector_impl" = type { %"struct.std::_Vector_base<clang::format::FormatStyle::RawStringFormat, std::allocator<clang::format::FormatStyle::RawStringFormat>>::_Vector_impl_data" }
%"struct.std::_Vector_base<clang::format::FormatStyle::RawStringFormat, std::allocator<clang::format::FormatStyle::RawStringFormat>>::_Vector_impl_data" = type { ptr, ptr, ptr }
%"struct.clang::format::FormatStyle::SpaceBeforeParensCustom" = type { i8, i8, i8, i8, i8, i8, i8, i8, i8, i8 }
%"struct.clang::format::FormatStyle::SpacesInLineComment" = type { i32, i32 }
%"struct.clang::format::FormatStyle::SpacesInParensCustom" = type { i8, i8, i8, i8, i8 }
%"class.std::vector.102" = type { %"struct.std::_Vector_base.103" }
%"struct.std::_Vector_base.103" = type { %"struct.std::_Vector_base<std::__cxx11::basic_string<char>, std::allocator<std::__cxx11::basic_string<char>>>::_Vector_impl" }
%"struct.std::_Vector_base<std::__cxx11::basic_string<char>, std::allocator<std::__cxx11::basic_string<char>>>::_Vector_impl" = type { %"struct.std::_Vector_base<std::__cxx11::basic_string<char>, std::allocator<std::__cxx11::basic_string<char>>>::_Vector_impl_data" }
%"struct.std::_Vector_base<std::__cxx11::basic_string<char>, std::allocator<std::__cxx11::basic_string<char>>>::_Vector_impl_data" = type { ptr, ptr, ptr }
%"struct.clang::format::FormatStyle::FormatStyleSet" = type { %"class.std::shared_ptr.125" }
%"class.std::shared_ptr.125" = type { %"class.std::__shared_ptr.126" }
%"class.std::__shared_ptr.126" = type { ptr, %"class.std::__shared_count" }

@.str.5 = private unnamed_addr constant [2 x i8] c"\09\00", align 1

; Function Attrs: mustprogress nounwind uwtable
define dso_local noundef i32 @_ZN5clang6format17WhitespaceManager15appendTabIndentERNSt7__cxx1112basic_stringIcSt11char_traitsIcESaIcEEEjj(ptr noundef nonnull align 8 dereferenceable(2257) %0, ptr noundef nonnull align 8 dereferenceable(32) %1, i32 noundef %2, i32 noundef %3) #0 align 2 {
  %5 = alloca ptr, align 8
  %6 = alloca ptr, align 8
  %7 = alloca i32, align 4
  %8 = alloca i32, align 4
  %9 = alloca i32, align 4
  store ptr %0, ptr %5, align 8
  store ptr %1, ptr %6, align 8
  store i32 %2, ptr %7, align 4
  store i32 %3, ptr %8, align 4
  %10 = load ptr, ptr %5, align 8
  %11 = load i32, ptr %8, align 4
  %12 = load i32, ptr %7, align 4
  %13 = icmp ugt i32 %11, %12
  br i1 %13, label %14, label %16

14:                                               ; preds = %4
  %15 = load i32, ptr %7, align 4
  store i32 %15, ptr %8, align 4
  br label %16

16:                                               ; preds = %14, %4
  %17 = getelementptr inbounds nuw %"class.clang::format::WhitespaceManager", ptr %10, i32 0, i32 3
  %18 = load ptr, ptr %17, align 8
  %19 = getelementptr inbounds nuw %"struct.clang::format::FormatStyle", ptr %18, i32 0, i32 156
  %20 = load i32, ptr %19, align 4
  %21 = icmp ne i32 %20, 0
  br i1 %21, label %22, label %41

22:                                               ; preds = %16
  %23 = load i32, ptr %8, align 4
  %24 = getelementptr inbounds nuw %"class.clang::format::WhitespaceManager", ptr %10, i32 0, i32 3
  %25 = load ptr, ptr %24, align 8
  %26 = getelementptr inbounds nuw %"struct.clang::format::FormatStyle", ptr %25, i32 0, i32 156
  %27 = load i32, ptr %26, align 4
  %28 = udiv i32 %23, %27
  store i32 %28, ptr %9, align 4
  %29 = load ptr, ptr %6, align 8
  %30 = load i32, ptr %9, align 4
  %31 = zext i32 %30 to i64
  %32 = call noundef nonnull align 8 dereferenceable(32) ptr @_ZNSt7__cxx1112basic_stringIcSt11char_traitsIcESaIcEE6appendEmc(ptr noundef nonnull align 8 dereferenceable(32) %29, i64 noundef %31, i8 noundef signext 9)
  %33 = load i32, ptr %9, align 4
  %34 = getelementptr inbounds nuw %"class.clang::format::WhitespaceManager", ptr %10, i32 0, i32 3
  %35 = load ptr, ptr %34, align 8
  %36 = getelementptr inbounds nuw %"struct.clang::format::FormatStyle", ptr %35, i32 0, i32 156
  %37 = load i32, ptr %36, align 4
  %38 = mul i32 %33, %37
  %39 = load i32, ptr %7, align 4
  %40 = sub i32 %39, %38
  store i32 %40, ptr %7, align 4
  br label %41

41:                                               ; preds = %22, %16
  %42 = load i32, ptr %7, align 4
  ret i32 %42
}

; Function Attrs: mustprogress nounwind uwtable
define dso_local void @_ZN5clang6format17WhitespaceManager16appendIndentTextERNSt7__cxx1112basic_stringIcSt11char_traitsIcESaIcEEEjjjb(ptr noundef nonnull align 8 dereferenceable(2257) %0, ptr noundef nonnull align 8 dereferenceable(32) %1, i32 noundef %2, i32 noundef %3, i32 noundef %4, i1 noundef zeroext %5) #0 align 2 {
  %7 = alloca ptr, align 8
  %8 = alloca ptr, align 8
  %9 = alloca i32, align 4
  %10 = alloca i32, align 4
  %11 = alloca i32, align 4
  %12 = alloca i8, align 1
  %13 = alloca i32, align 4
  %14 = alloca i32, align 4
  %15 = alloca i32, align 4
  store ptr %0, ptr %7, align 8
  store ptr %1, ptr %8, align 8
  store i32 %2, ptr %9, align 4
  store i32 %3, ptr %10, align 4
  store i32 %4, ptr %11, align 4
  %16 = zext i1 %5 to i8
  store i8 %16, ptr %12, align 1
  %17 = load ptr, ptr %7, align 8
  %18 = getelementptr inbounds nuw %"class.clang::format::WhitespaceManager", ptr %17, i32 0, i32 3
  %19 = load ptr, ptr %18, align 8
  %20 = getelementptr inbounds nuw %"struct.clang::format::FormatStyle", ptr %19, i32 0, i32 159
  %21 = load i8, ptr %20, align 8
  %22 = sext i8 %21 to i32
  switch i32 %22, label %149 [
    i32 0, label %23
    i32 4, label %28
    i32 1, label %91
    i32 2, label %110
    i32 3, label %123
  ]

23:                                               ; preds = %6
  %24 = load ptr, ptr %8, align 8
  %25 = load i32, ptr %10, align 4
  %26 = zext i32 %25 to i64
  %27 = call noundef nonnull align 8 dereferenceable(32) ptr @_ZNSt7__cxx1112basic_stringIcSt11char_traitsIcESaIcEE6appendEmc(ptr noundef nonnull align 8 dereferenceable(32) %24, i64 noundef %26, i8 noundef signext 32)
  br label %149

28:                                               ; preds = %6
  %29 = getelementptr inbounds nuw %"class.clang::format::WhitespaceManager", ptr %17, i32 0, i32 3
  %30 = load ptr, ptr %29, align 8
  %31 = getelementptr inbounds nuw %"struct.clang::format::FormatStyle", ptr %30, i32 0, i32 156
  %32 = load i32, ptr %31, align 4
  %33 = icmp ne i32 %32, 0
  br i1 %33, label %34, label %81

34:                                               ; preds = %28
  %35 = getelementptr inbounds nuw %"class.clang::format::WhitespaceManager", ptr %17, i32 0, i32 3
  %36 = load ptr, ptr %35, align 8
  %37 = getelementptr inbounds nuw %"struct.clang::format::FormatStyle", ptr %36, i32 0, i32 156
  %38 = load i32, ptr %37, align 4
  %39 = load i32, ptr %11, align 4
  %40 = getelementptr inbounds nuw %"class.clang::format::WhitespaceManager", ptr %17, i32 0, i32 3
  %41 = load ptr, ptr %40, align 8
  %42 = getelementptr inbounds nuw %"struct.clang::format::FormatStyle", ptr %41, i32 0, i32 156
  %43 = load i32, ptr %42, align 4
  %44 = urem i32 %39, %43
  %45 = sub i32 %38, %44
  store i32 %45, ptr %13, align 4
  %46 = load i32, ptr %10, align 4
  %47 = load i32, ptr %13, align 4
  %48 = icmp ult i32 %46, %47
  br i1 %48, label %52, label %49

49:                                               ; preds = %34
  %50 = load i32, ptr %10, align 4
  %51 = icmp eq i32 %50, 1
  br i1 %51, label %52, label %57

52:                                               ; preds = %49, %34
  %53 = load ptr, ptr %8, align 8
  %54 = load i32, ptr %10, align 4
  %55 = zext i32 %54 to i64
  %56 = call noundef nonnull align 8 dereferenceable(32) ptr @_ZNSt7__cxx1112basic_stringIcSt11char_traitsIcESaIcEE6appendEmc(ptr noundef nonnull align 8 dereferenceable(32) %53, i64 noundef %55, i8 noundef signext 32)
  br label %149

57:                                               ; preds = %49
  %58 = load i32, ptr %13, align 4
  %59 = load i32, ptr %10, align 4
  %60 = sub i32 %59, %58
  store i32 %60, ptr %10, align 4
  %61 = load ptr, ptr %8, align 8
  %62 = call noundef nonnull align 8 dereferenceable(32) ptr @_ZNSt7__cxx1112basic_stringIcSt11char_traitsIcESaIcEE6appendEPKc(ptr noundef nonnull align 8 dereferenceable(32) %61, ptr noundef @.str.5)
  %63 = load ptr, ptr %8, align 8
  %64 = load i32, ptr %10, align 4
  %65 = getelementptr inbounds nuw %"class.clang::format::WhitespaceManager", ptr %17, i32 0, i32 3
  %66 = load ptr, ptr %65, align 8
  %67 = getelementptr inbounds nuw %"struct.clang::format::FormatStyle", ptr %66, i32 0, i32 156
  %68 = load i32, ptr %67, align 4
  %69 = udiv i32 %64, %68
  %70 = zext i32 %69 to i64
  %71 = call noundef nonnull align 8 dereferenceable(32) ptr @_ZNSt7__cxx1112basic_stringIcSt11char_traitsIcESaIcEE6appendEmc(ptr noundef nonnull align 8 dereferenceable(32) %63, i64 noundef %70, i8 noundef signext 9)
  %72 = load ptr, ptr %8, align 8
  %73 = load i32, ptr %10, align 4
  %74 = getelementptr inbounds nuw %"class.clang::format::WhitespaceManager", ptr %17, i32 0, i32 3
  %75 = load ptr, ptr %74, align 8
  %76 = getelementptr inbounds nuw %"struct.clang::format::FormatStyle", ptr %75, i32 0, i32 156
  %77 = load i32, ptr %76, align 4
  %78 = urem i32 %73, %77
  %79 = zext i32 %78 to i64
  %80 = call noundef nonnull align 8 dereferenceable(32) ptr @_ZNSt7__cxx1112basic_stringIcSt11char_traitsIcESaIcEE6appendEmc(ptr noundef nonnull align 8 dereferenceable(32) %72, i64 noundef %79, i8 noundef signext 32)
  br label %90

81:                                               ; preds = %28
  %82 = load i32, ptr %10, align 4
  %83 = icmp eq i32 %82, 1
  br i1 %83, label %84, label %89

84:                                               ; preds = %81
  %85 = load ptr, ptr %8, align 8
  %86 = load i32, ptr %10, align 4
  %87 = zext i32 %86 to i64
  %88 = call noundef nonnull align 8 dereferenceable(32) ptr @_ZNSt7__cxx1112basic_stringIcSt11char_traitsIcESaIcEE6appendEmc(ptr noundef nonnull align 8 dereferenceable(32) %85, i64 noundef %87, i8 noundef signext 32)
  br label %89

89:                                               ; preds = %84, %81
  br label %90

90:                                               ; preds = %89, %57
  br label %149

91:                                               ; preds = %6
  %92 = load i32, ptr %11, align 4
  %93 = icmp eq i32 %92, 0
  br i1 %93, label %94, label %105

94:                                               ; preds = %91
  %95 = load i32, ptr %9, align 4
  %96 = getelementptr inbounds nuw %"class.clang::format::WhitespaceManager", ptr %17, i32 0, i32 3
  %97 = load ptr, ptr %96, align 8
  %98 = getelementptr inbounds nuw %"struct.clang::format::FormatStyle", ptr %97, i32 0, i32 74
  %99 = load i32, ptr %98, align 8
  %100 = mul i32 %95, %99
  store i32 %100, ptr %14, align 4
  %101 = load ptr, ptr %8, align 8
  %102 = load i32, ptr %10, align 4
  %103 = load i32, ptr %14, align 4
  %104 = call noundef i32 @_ZN5clang6format17WhitespaceManager15appendTabIndentERNSt7__cxx1112basic_stringIcSt11char_traitsIcESaIcEEEjj(ptr noundef nonnull align 8 dereferenceable(2257) %17, ptr noundef nonnull align 8 dereferenceable(32) %101, i32 noundef %102, i32 noundef %103)
  store i32 %104, ptr %10, align 4
  br label %105

105:                                              ; preds = %94, %91
  %106 = load ptr, ptr %8, align 8
  %107 = load i32, ptr %10, align 4
  %108 = zext i32 %107 to i64
  %109 = call noundef nonnull align 8 dereferenceable(32) ptr @_ZNSt7__cxx1112basic_stringIcSt11char_traitsIcESaIcEE6appendEmc(ptr noundef nonnull align 8 dereferenceable(32) %106, i64 noundef %108, i8 noundef signext 32)
  br label %149

110:                                              ; preds = %6
  %111 = load i32, ptr %11, align 4
  %112 = icmp eq i32 %111, 0
  br i1 %112, label %113, label %118

113:                                              ; preds = %110
  %114 = load ptr, ptr %8, align 8
  %115 = load i32, ptr %10, align 4
  %116 = load i32, ptr %10, align 4
  %117 = call noundef i32 @_ZN5clang6format17WhitespaceManager15appendTabIndentERNSt7__cxx1112basic_stringIcSt11char_traitsIcESaIcEEEjj(ptr noundef nonnull align 8 dereferenceable(2257) %17, ptr noundef nonnull align 8 dereferenceable(32) %114, i32 noundef %115, i32 noundef %116)
  store i32 %117, ptr %10, align 4
  br label %118

118:                                              ; preds = %113, %110
  %119 = load ptr, ptr %8, align 8
  %120 = load i32, ptr %10, align 4
  %121 = zext i32 %120 to i64
  %122 = call noundef nonnull align 8 dereferenceable(32) ptr @_ZNSt7__cxx1112basic_stringIcSt11char_traitsIcESaIcEE6appendEmc(ptr noundef nonnull align 8 dereferenceable(32) %119, i64 noundef %121, i8 noundef signext 32)
  br label %149

123:                                              ; preds = %6
  %124 = load i32, ptr %11, align 4
  %125 = icmp eq i32 %124, 0
  br i1 %125, label %126, label %144

126:                                              ; preds = %123
  %127 = load i8, ptr %12, align 1
  %128 = trunc i8 %127 to i1
  br i1 %128, label %129, label %136

129:                                              ; preds = %126
  %130 = load i32, ptr %9, align 4
  %131 = getelementptr inbounds nuw %"class.clang::format::WhitespaceManager", ptr %17, i32 0, i32 3
  %132 = load ptr, ptr %131, align 8
  %133 = getelementptr inbounds nuw %"struct.clang::format::FormatStyle", ptr %132, i32 0, i32 74
  %134 = load i32, ptr %133, align 8
  %135 = mul i32 %130, %134
  br label %138

136:                                              ; preds = %126
  %137 = load i32, ptr %10, align 4
  br label %138

138:                                              ; preds = %136, %129
  %139 = phi i32 [ %135, %129 ], [ %137, %136 ]
  store i32 %139, ptr %15, align 4
  %140 = load ptr, ptr %8, align 8
  %141 = load i32, ptr %10, align 4
  %142 = load i32, ptr %15, align 4
  %143 = call noundef i32 @_ZN5clang6format17WhitespaceManager15appendTabIndentERNSt7__cxx1112basic_stringIcSt11char_traitsIcESaIcEEEjj(ptr noundef nonnull align 8 dereferenceable(2257) %17, ptr noundef nonnull align 8 dereferenceable(32) %140, i32 noundef %141, i32 noundef %142)
  store i32 %143, ptr %10, align 4
  br label %144

144:                                              ; preds = %138, %123
  %145 = load ptr, ptr %8, align 8
  %146 = load i32, ptr %10, align 4
  %147 = zext i32 %146 to i64
  %148 = call noundef nonnull align 8 dereferenceable(32) ptr @_ZNSt7__cxx1112basic_stringIcSt11char_traitsIcESaIcEE6appendEmc(ptr noundef nonnull align 8 dereferenceable(32) %145, i64 noundef %147, i8 noundef signext 32)
  br label %149

149:                                              ; preds = %144, %118, %105, %90, %52, %23, %6
  ret void
}