; Function Attrs: mustprogress nounwind uwtable
define dso_local void @_ZN5clang6format17WhitespaceManager16appendIndentTextERNSt7__cxx1112basic_stringIcSt11char_traitsIcESaIcEEEjjjb(ptr nocapture noundef nonnull readonly align 8 dereferenceable(2257) %0, ptr noundef nonnull align 8 dereferenceable(32) %1, i32 noundef %2, i32 noundef %3, i32 noundef %4, i1 noundef zeroext %5) local_unnamed_addr #0 align 2 {
  %7 = getelementptr inbounds nuw i8, ptr %0, i64 2248
  %8 = load ptr, ptr %7, align 8
  %9 = getelementptr inbounds nuw i8, ptr %8, i64 888
  %10 = load i8, ptr %9, align 8
  switch i8 %10, label %86 [
    i8 0, label %.sink.split
    i8 4, label %11
    i8 1, label %34
    i8 2, label %51
    i8 3, label %65
  ]

11:                                               ; preds = %6
  %12 = getelementptr inbounds nuw i8, ptr %8, i64 836
  %13 = load i32, ptr %12, align 4
  %.not = icmp eq i32 %13, 0
  br i1 %.not, label %32, label %14

14:                                               ; preds = %11
  %15 = urem i32 %4, %13
  %16 = sub i32 %13, %15
  %17 = icmp ult i32 %3, %16
  %18 = icmp eq i32 %3, 1
  %or.cond = or i1 %18, %17
  br i1 %or.cond, label %.sink.split, label %19

19:                                               ; preds = %14
  %20 = sub nuw i32 %3, %16
  %21 = tail call noundef nonnull align 8 dereferenceable(32) ptr @_ZNSt7__cxx1112basic_stringIcSt11char_traitsIcESaIcEE6appendEPKc(ptr noundef nonnull align 8 dereferenceable(32) %1, ptr noundef nonnull @.str.5) #18
  %22 = load ptr, ptr %7, align 8
  %23 = getelementptr inbounds nuw i8, ptr %22, i64 836
  %24 = load i32, ptr %23, align 4
  %25 = udiv i32 %20, %24
  %26 = zext i32 %25 to i64
  %27 = tail call noundef nonnull align 8 dereferenceable(32) ptr @_ZNSt7__cxx1112basic_stringIcSt11char_traitsIcESaIcEE6appendEmc(ptr noundef nonnull align 8 dereferenceable(32) %1, i64 noundef %26, i8 noundef signext 9) #18
  %28 = load ptr, ptr %7, align 8
  %29 = getelementptr inbounds nuw i8, ptr %28, i64 836
  %30 = load i32, ptr %29, align 4
  %31 = urem i32 %20, %30
  br label %.sink.split

32:                                               ; preds = %11
  %33 = icmp eq i32 %3, 1
  br i1 %33, label %.sink.split, label %86

34:                                               ; preds = %6
  %35 = icmp eq i32 %4, 0
  br i1 %35, label %36, label %.sink.split

36:                                               ; preds = %34
  %37 = getelementptr inbounds nuw i8, ptr %8, i64 836
  %38 = load i32, ptr %37, align 4
  %.not.i = icmp eq i32 %38, 0
  br i1 %.not.i, label %.sink.split, label %39

39:                                               ; preds = %36
  %40 = getelementptr inbounds nuw i8, ptr %8, i64 376
  %41 = load i32, ptr %40, align 8
  %42 = mul i32 %41, %2
  %spec.select.i = tail call i32 @llvm.umin.i32(i32 %42, i32 %3)
  %43 = udiv i32 %spec.select.i, %38
  %44 = zext i32 %43 to i64
  %45 = tail call noundef nonnull align 8 dereferenceable(32) ptr @_ZNSt7__cxx1112basic_stringIcSt11char_traitsIcESaIcEE6appendEmc(ptr noundef nonnull align 8 dereferenceable(32) %1, i64 noundef %44, i8 noundef signext 9) #18
  %46 = load ptr, ptr %7, align 8
  %47 = getelementptr inbounds nuw i8, ptr %46, i64 836
  %48 = load i32, ptr %47, align 4
  %49 = mul i32 %48, %43
  %50 = sub i32 %3, %49
  br label %.sink.split

51:                                               ; preds = %6
  %52 = icmp eq i32 %4, 0
  br i1 %52, label %53, label %.sink.split

53:                                               ; preds = %51
  %54 = getelementptr inbounds nuw i8, ptr %8, i64 836
  %55 = load i32, ptr %54, align 4
  %.not.i45 = icmp eq i32 %55, 0
  br i1 %.not.i45, label %.sink.split, label %56

56:                                               ; preds = %53
  %57 = udiv i32 %3, %55
  %58 = zext i32 %57 to i64
  %59 = tail call noundef nonnull align 8 dereferenceable(32) ptr @_ZNSt7__cxx1112basic_stringIcSt11char_traitsIcESaIcEE6appendEmc(ptr noundef nonnull align 8 dereferenceable(32) %1, i64 noundef %58, i8 noundef signext 9) #18
  %60 = load ptr, ptr %7, align 8
  %61 = getelementptr inbounds nuw i8, ptr %60, i64 836
  %62 = load i32, ptr %61, align 4
  %63 = mul i32 %62, %57
  %64 = sub i32 %3, %63
  br label %.sink.split

65:                                               ; preds = %6
  %66 = icmp eq i32 %4, 0
  br i1 %66, label %67, label %.sink.split

67:                                               ; preds = %65
  br i1 %5, label %68, label %72

68:                                               ; preds = %67
  %69 = getelementptr inbounds nuw i8, ptr %8, i64 376
  %70 = load i32, ptr %69, align 8
  %71 = mul i32 %70, %2
  br label %72

72:                                               ; preds = %67, %68
  %73 = phi i32 [ %71, %68 ], [ %3, %67 ]
  %74 = getelementptr inbounds nuw i8, ptr %8, i64 836
  %75 = load i32, ptr %74, align 4
  %.not.i49 = icmp eq i32 %75, 0
  br i1 %.not.i49, label %.sink.split, label %76

76:                                               ; preds = %72
  %spec.select.i50 = tail call i32 @llvm.umin.i32(i32 %73, i32 %3)
  %77 = udiv i32 %spec.select.i50, %75
  %78 = zext i32 %77 to i64
  %79 = tail call noundef nonnull align 8 dereferenceable(32) ptr @_ZNSt7__cxx1112basic_stringIcSt11char_traitsIcESaIcEE6appendEmc(ptr noundef nonnull align 8 dereferenceable(32) %1, i64 noundef %78, i8 noundef signext 9) #18
  %80 = load ptr, ptr %7, align 8
  %81 = getelementptr inbounds nuw i8, ptr %80, i64 836
  %82 = load i32, ptr %81, align 4
  %83 = mul i32 %82, %77
  %84 = sub i32 %3, %83
  br label %.sink.split

.sink.split:                                      ; preds = %65, %72, %76, %51, %53, %56, %34, %36, %39, %14, %6, %32, %19
  %.sink.shrunk = phi i32 [ %31, %19 ], [ 1, %32 ], [ %3, %6 ], [ %3, %14 ], [ %3, %34 ], [ %50, %39 ], [ %3, %36 ], [ %3, %51 ], [ %64, %56 ], [ %3, %53 ], [ %3, %65 ], [ %84, %76 ], [ %3, %72 ]
  %.sink = zext i32 %.sink.shrunk to i64
  %85 = tail call noundef nonnull align 8 dereferenceable(32) ptr @_ZNSt7__cxx1112basic_stringIcSt11char_traitsIcESaIcEE6appendEmc(ptr noundef nonnull align 8 dereferenceable(32) %1, i64 noundef %.sink, i8 noundef signext 32) #18
  br label %86

86:                                               ; preds = %.sink.split, %32, %6
  ret void
}